target datalayout = "e-m:e-p270:32:32-p271:32:32-p272:64:64-i64:64-i128:128-f80:128-n8:16:32:64-S128"
target triple = "x86_64-pc-linux-gnu"

%class.btVector3 = type { [4 x float] }
%class.btAlignedObjectArray.0 = type <{ [4 x i8], i32, i32, [4 x i8], ptr, i8, [7 x i8] }>
%class.btAlignedObjectArray.2 = type <{ [4 x i8], i32, i32, [4 x i8], ptr, i8, [7 x i8] }>
%class.btSequentialImpulseConstraintSolver = type { %class.btConstraintSolver, %class.btAlignedObjectArray.4, %class.btAlignedObjectArray.6, %class.btAlignedObjectArray.6, %class.btAlignedObjectArray.6, %class.btAlignedObjectArray.6, %class.btAlignedObjectArray.0, %class.btAlignedObjectArray.0, %class.btAlignedObjectArray.0, %class.btAlignedObjectArray.8, i32, i32, %class.btAlignedObjectArray.0, ptr, ptr, ptr, i32, float, i64, %struct.btSolverAnalyticsData }
%class.btConstraintSolver = type { ptr }
%class.btAlignedObjectArray.4 = type <{ [4 x i8], i32, i32, [4 x i8], ptr, i8, [7 x i8] }>
%class.btAlignedObjectArray.6 = type <{ [4 x i8], i32, i32, [4 x i8], ptr, i8, [7 x i8] }>
%class.btAlignedObjectArray.8 = type <{ [4 x i8], i32, i32, [4 x i8], ptr, i8, [7 x i8] }>
%struct.btSolverAnalyticsData = type { i32, i32, i32, i32, i32, double }
%class.btDeformableMultiBodyConstraintSolver = type { %class.btMultiBodyConstraintSolver.base, ptr }
%class.btMultiBodyConstraintSolver.base = type <{ %class.btSequentialImpulseConstraintSolver, %class.btAlignedObjectArray.10, %class.btAlignedObjectArray.10, %class.btAlignedObjectArray.10, %class.btAlignedObjectArray.10, %class.btAlignedObjectArray.10, %struct.btMultiBodyJacobianData, ptr, i32 }>
%class.btAlignedObjectArray.10 = type <{ [4 x i8], i32, i32, [4 x i8], ptr, i8, [7 x i8] }>
%struct.btMultiBodyJacobianData = type <{ %class.btAlignedObjectArray.12, %class.btAlignedObjectArray.12, %class.btAlignedObjectArray.12, %class.btAlignedObjectArray.12, %class.btAlignedObjectArray.2, %class.btAlignedObjectArray.14, ptr, i32, [4 x i8] }>
%class.btAlignedObjectArray.12 = type <{ [4 x i8], i32, i32, [4 x i8], ptr, i8, [7 x i8] }>
%class.btAlignedObjectArray.14 = type <{ [4 x i8], i32, i32, [4 x i8], ptr, i8, [7 x i8] }>
%class.btMatrix3x3 = type { [3 x %class.btVector3] }
%struct.btSolverBody = type { %class.btTransform, %class.btVector3, %class.btVector3, %class.btVector3, %class.btVector3, %class.btVector3, %class.btVector3, %class.btVector3, %class.btVector3, %class.btVector3, %class.btVector3, %class.btVector3, ptr }
%class.btTransform = type { %class.btMatrix3x3, %class.btVector3 }
%class.btCollisionObject = type <{ ptr, %class.btTransform, %class.btTransform, %class.btVector3, %class.btVector3, %class.btVector3, i32, float, ptr, ptr, ptr, ptr, i32, i32, i32, i32, i32, float, float, float, float, float, float, float, i32, [4 x i8], ptr, i32, i32, i32, float, float, float, i32, [4 x i8], %class.btAlignedObjectArray.18, i32, %class.btVector3, [4 x i8] }>
%class.btAlignedObjectArray.18 = type <{ [4 x i8], i32, i32, [4 x i8], ptr, i8, [7 x i8] }>
%class.btRigidBody = type { %class.btCollisionObject.base, %class.btMatrix3x3, %class.btVector3, %class.btVector3, float, %class.btVector3, %class.btVector3, %class.btVector3, %class.btVector3, %class.btVector3, %class.btVector3, float, float, i8, float, float, float, float, float, float, ptr, %class.btAlignedObjectArray.20, i32, i32, %class.btVector3, %class.btVector3, %class.btVector3, %class.btVector3, %class.btVector3, %class.btVector3, i32, i32 }
%class.btCollisionObject.base = type <{ ptr, %class.btTransform, %class.btTransform, %class.btVector3, %class.btVector3, %class.btVector3, i32, float, ptr, ptr, ptr, ptr, i32, i32, i32, i32, i32, float, float, float, float, float, float, float, i32, [4 x i8], ptr, i32, i32, i32, float, float, float, i32, [4 x i8], %class.btAlignedObjectArray.18, i32, %class.btVector3 }>
%class.btAlignedObjectArray.20 = type <{ [4 x i8], i32, i32, [4 x i8], ptr, i8, [7 x i8] }>

; Function Attrs: inlinehint mustprogress nounwind uwtable
define linkonce_odr dso_local void @_ZN9btVector3C2ERKfS1_S1_(ptr noundef nonnull align 4 dereferenceable(16) %0, ptr noundef nonnull align 4 dereferenceable(4) %1, ptr noundef nonnull align 4 dereferenceable(4) %2, ptr noundef nonnull align 4 dereferenceable(4) %3) unnamed_addr #6 comdat align 2 {
  %5 = alloca ptr, align 8
  %6 = alloca ptr, align 8
  %7 = alloca ptr, align 8
  %8 = alloca ptr, align 8
  store ptr %0, ptr %5, align 8, !tbaa !14
  store ptr %1, ptr %6, align 8, !tbaa !16
  store ptr %2, ptr %7, align 8, !tbaa !16
  store ptr %3, ptr %8, align 8, !tbaa !16
  %9 = load ptr, ptr %5, align 8
  %10 = load ptr, ptr %6, align 8, !tbaa !16
  %11 = load float, ptr %10, align 4, !tbaa !12
  %12 = getelementptr inbounds nuw %class.btVector3, ptr %9, i32 0, i32 0
  %13 = getelementptr inbounds [4 x float], ptr %12, i64 0, i64 0
  store float %11, ptr %13, align 4, !tbaa !12
  %14 = load ptr, ptr %7, align 8, !tbaa !16
  %15 = load float, ptr %14, align 4, !tbaa !12
  %16 = getelementptr inbounds nuw %class.btVector3, ptr %9, i32 0, i32 0
  %17 = getelementptr inbounds [4 x float], ptr %16, i64 0, i64 1
  store float %15, ptr %17, align 4, !tbaa !12
  %18 = load ptr, ptr %8, align 8, !tbaa !16
  %19 = load float, ptr %18, align 4, !tbaa !12
  %20 = getelementptr inbounds nuw %class.btVector3, ptr %9, i32 0, i32 0
  %21 = getelementptr inbounds [4 x float], ptr %20, i64 0, i64 2
  store float %19, ptr %21, align 4, !tbaa !12
  %22 = getelementptr inbounds nuw %class.btVector3, ptr %9, i32 0, i32 0
  %23 = getelementptr inbounds [4 x float], ptr %22, i64 0, i64 3
  store float 0.000000e+00, ptr %23, align 4, !tbaa !12
  ret void
}

; Function Attrs: inlinehint mustprogress nounwind uwtable
define linkonce_odr dso_local void @_ZN11btRigidBody18setAngularVelocityERK9btVector3(ptr noundef nonnull align 8 dereferenceable(744) %0, ptr noundef nonnull align 4 dereferenceable(16) %1) #6 comdat align 2 {
  %3 = alloca ptr, align 8
  %4 = alloca ptr, align 8
  store ptr %0, ptr %3, align 8, !tbaa !126
  store ptr %1, ptr %4, align 8, !tbaa !14
  %5 = load ptr, ptr %3, align 8
  %6 = getelementptr inbounds nuw %class.btCollisionObject, ptr %5, i32 0, i32 36
  %7 = load i32, ptr %6, align 8, !tbaa !156
  %8 = add nsw i32 %7, 1
  store i32 %8, ptr %6, align 8, !tbaa !156
  %9 = load ptr, ptr %4, align 8, !tbaa !14
  %10 = getelementptr inbounds nuw %class.btRigidBody, ptr %5, i32 0, i32 3
  call void @llvm.memcpy.p0.p0.i64(ptr align 4 %10, ptr align 4 %9, i64 16, i1 false), !tbaa.struct !135
  ret void
}

; Function Attrs: inlinehint mustprogress nounwind uwtable
define linkonce_odr dso_local void @_ZN11btRigidBody17setLinearVelocityERK9btVector3(ptr noundef nonnull align 8 dereferenceable(744) %0, ptr noundef nonnull align 4 dereferenceable(16) %1) #6 comdat align 2 {
  %3 = alloca ptr, align 8
  %4 = alloca ptr, align 8
  store ptr %0, ptr %3, align 8, !tbaa !126
  store ptr %1, ptr %4, align 8, !tbaa !14
  %5 = load ptr, ptr %3, align 8
  %6 = getelementptr inbounds nuw %class.btCollisionObject, ptr %5, i32 0, i32 36
  %7 = load i32, ptr %6, align 8, !tbaa !156
  %8 = add nsw i32 %7, 1
  store i32 %8, ptr %6, align 8, !tbaa !156
  %9 = load ptr, ptr %4, align 8, !tbaa !14
  %10 = getelementptr inbounds nuw %class.btRigidBody, ptr %5, i32 0, i32 2
  call void @llvm.memcpy.p0.p0.i64(ptr align 4 %10, ptr align 4 %9, i64 16, i1 false), !tbaa.struct !135
  ret void
}

; Function Attrs: inlinehint mustprogress uwtable
define linkonce_odr dso_local { <2 x float>, <2 x float> } @_ZplRK9btVector3S1_(ptr noundef nonnull align 4 dereferenceable(16) %0, ptr noundef nonnull align 4 dereferenceable(16) %1) #8 comdat {
  %3 = alloca %class.btVector3, align 4
  %4 = alloca ptr, align 8
  %5 = alloca ptr, align 8
  %6 = alloca float, align 4
  %7 = alloca float, align 4
  %8 = alloca float, align 4
  store ptr %0, ptr %4, align 8, !tbaa !14
  store ptr %1, ptr %5, align 8, !tbaa !14
  call void @llvm.lifetime.start.p0(i64 4, ptr %6) #4
  %9 = load ptr, ptr %4, align 8, !tbaa !14
  %10 = getelementptr inbounds nuw %class.btVector3, ptr %9, i32 0, i32 0
  %11 = getelementptr inbounds [4 x float], ptr %10, i64 0, i64 0
  %12 = load float, ptr %11, align 4, !tbaa !12
  %13 = load ptr, ptr %5, align 8, !tbaa !14
  %14 = getelementptr inbounds nuw %class.btVector3, ptr %13, i32 0, i32 0
  %15 = getelementptr inbounds [4 x float], ptr %14, i64 0, i64 0
  %16 = load float, ptr %15, align 4, !tbaa !12
  %17 = fadd float %12, %16
  store float %17, ptr %6, align 4, !tbaa !12
  call void @llvm.lifetime.start.p0(i64 4, ptr %7) #4
  %18 = load ptr, ptr %4, align 8, !tbaa !14
  %19 = getelementptr inbounds nuw %class.btVector3, ptr %18, i32 0, i32 0
  %20 = getelementptr inbounds [4 x float], ptr %19, i64 0, i64 1
  %21 = load float, ptr %20, align 4, !tbaa !12
  %22 = load ptr, ptr %5, align 8, !tbaa !14
  %23 = getelementptr inbounds nuw %class.btVector3, ptr %22, i32 0, i32 0
  %24 = getelementptr inbounds [4 x float], ptr %23, i64 0, i64 1
  %25 = load float, ptr %24, align 4, !tbaa !12
  %26 = fadd float %21, %25
  store float %26, ptr %7, align 4, !tbaa !12
  call void @llvm.lifetime.start.p0(i64 4, ptr %8) #4
  %27 = load ptr, ptr %4, align 8, !tbaa !14
  %28 = getelementptr inbounds nuw %class.btVector3, ptr %27, i32 0, i32 0
  %29 = getelementptr inbounds [4 x float], ptr %28, i64 0, i64 2
  %30 = load float, ptr %29, align 4, !tbaa !12
  %31 = load ptr, ptr %5, align 8, !tbaa !14
  %32 = getelementptr inbounds nuw %class.btVector3, ptr %31, i32 0, i32 0
  %33 = getelementptr inbounds [4 x float], ptr %32, i64 0, i64 2
  %34 = load float, ptr %33, align 4, !tbaa !12
  %35 = fadd float %30, %34
  store float %35, ptr %8, align 4, !tbaa !12
  call void @_ZN9btVector3C2ERKfS1_S1_(ptr noundef nonnull align 4 dereferenceable(16) %3, ptr noundef nonnull align 4 dereferenceable(4) %6, ptr noundef nonnull align 4 dereferenceable(4) %7, ptr noundef nonnull align 4 dereferenceable(4) %8)
  call void @llvm.lifetime.end.p0(i64 4, ptr %8) #4
  call void @llvm.lifetime.end.p0(i64 4, ptr %7) #4
  call void @llvm.lifetime.end.p0(i64 4, ptr %6) #4
  %36 = getelementptr inbounds nuw %class.btVector3, ptr %3, i32 0, i32 0
  %37 = load { <2 x float>, <2 x float> }, ptr %36, align 4
  ret { <2 x float>, <2 x float> } %37
}

; Function Attrs: inlinehint mustprogress nounwind uwtable
define linkonce_odr dso_local noundef nonnull align 8 dereferenceable(248) ptr @_ZN20btAlignedObjectArrayI12btSolverBodyEixEi(ptr noundef nonnull align 8 dereferenceable(25) %0, i32 noundef %1) #6 comdat align 2 {
  %3 = alloca ptr, align 8
  %4 = alloca i32, align 4
  store ptr %0, ptr %3, align 8, !tbaa !153
  store i32 %1, ptr %4, align 4, !tbaa !9
  %5 = load ptr, ptr %3, align 8
  %6 = getelementptr inbounds nuw %class.btAlignedObjectArray.4, ptr %5, i32 0, i32 4
  %7 = load ptr, ptr %6, align 8, !tbaa !154
  %8 = load i32, ptr %4, align 4, !tbaa !9
  %9 = sext i32 %8 to i64
  %10 = getelementptr inbounds %struct.btSolverBody, ptr %7, i64 %9
  ret ptr %10
}

; Function Attrs: inlinehint mustprogress nounwind uwtable
define linkonce_odr dso_local noundef i32 @_ZNK20btAlignedObjectArrayI12btSolverBodyE4sizeEv(ptr noundef nonnull align 8 dereferenceable(25) %0) #6 comdat align 2 {
  %2 = alloca ptr, align 8
  store ptr %0, ptr %2, align 8, !tbaa !153
  %3 = load ptr, ptr %2, align 8
  %4 = getelementptr inbounds nuw %class.btAlignedObjectArray.4, ptr %3, i32 0, i32 1
  %5 = load i32, ptr %4, align 4, !tbaa !155
  ret i32 %5
}

; Function Attrs: mustprogress uwtable
define dso_local void @_ZN37btDeformableMultiBodyConstraintSolver19solverBodyWriteBackERK19btContactSolverInfo(ptr noundef nonnull align 8 dereferenceable(800) %0, ptr noundef nonnull align 4 dereferenceable(128) %1) #9 align 2 {
  %3 = alloca ptr, align 8
  %4 = alloca ptr, align 8
  %5 = alloca i32, align 4
  %6 = alloca ptr, align 8
  %7 = alloca %class.btVector3, align 4
  %8 = alloca %class.btVector3, align 4
  store ptr %0, ptr %3, align 8, !tbaa !58
  store ptr %1, ptr %4, align 8, !tbaa !66
  %9 = load ptr, ptr %3, align 8
  %10 = getelementptr inbounds nuw %class.btDeformableMultiBodyConstraintSolver, ptr %9, i32 0, i32 1
  %11 = load ptr, ptr %10, align 8, !tbaa !87
  %12 = load ptr, ptr %11, align 8, !tbaa !51
  %13 = getelementptr inbounds ptr, ptr %12, i64 30
  %14 = load ptr, ptr %13, align 8
  %15 = call noundef zeroext i1 %14(ptr noundef nonnull align 8 dereferenceable(609) %11)
  br i1 %15, label %16, label %17

16:                                               ; preds = %2
  br label %75

17:                                               ; preds = %2
  call void @llvm.lifetime.start.p0(i64 4, ptr %5) #4
  store i32 0, ptr %5, align 4, !tbaa !9
  br label %18

18:                                               ; preds = %72, %17
  %19 = load i32, ptr %5, align 4, !tbaa !9
  %20 = getelementptr inbounds nuw %class.btSequentialImpulseConstraintSolver, ptr %9, i32 0, i32 1
  %21 = call noundef i32 @_ZNK20btAlignedObjectArrayI12btSolverBodyE4sizeEv(ptr noundef nonnull align 8 dereferenceable(25) %20)
  %22 = icmp slt i32 %19, %21
  br i1 %22, label %24, label %23

23:                                               ; preds = %18
  call void @llvm.lifetime.end.p0(i64 4, ptr %5) #4
  br label %75

24:                                               ; preds = %18
  call void @llvm.lifetime.start.p0(i64 8, ptr %6) #4
  %25 = getelementptr inbounds nuw %class.btSequentialImpulseConstraintSolver, ptr %9, i32 0, i32 1
  %26 = load i32, ptr %5, align 4, !tbaa !9
  %27 = call noundef nonnull align 8 dereferenceable(248) ptr @_ZN20btAlignedObjectArrayI12btSolverBodyEixEi(ptr noundef nonnull align 8 dereferenceable(25) %25, i32 noundef %26)
  %28 = getelementptr inbounds nuw %struct.btSolverBody, ptr %27, i32 0, i32 12
  %29 = load ptr, ptr %28, align 8, !tbaa !131
  store ptr %29, ptr %6, align 8, !tbaa !126
  %30 = load ptr, ptr %6, align 8, !tbaa !126
  %31 = icmp ne ptr %30, null
  br i1 %31, label %32, label %71

32:                                               ; preds = %24
  %33 = getelementptr inbounds nuw %class.btSequentialImpulseConstraintSolver, ptr %9, i32 0, i32 1
  %34 = load i32, ptr %5, align 4, !tbaa !9
  %35 = call noundef nonnull align 8 dereferenceable(248) ptr @_ZN20btAlignedObjectArrayI12btSolverBodyEixEi(ptr noundef nonnull align 8 dereferenceable(25) %33, i32 noundef %34)
  %36 = getelementptr inbounds nuw %struct.btSolverBody, ptr %35, i32 0, i32 12
  %37 = load ptr, ptr %36, align 8, !tbaa !131
  call void @llvm.lifetime.start.p0(i64 16, ptr %7) #4
  %38 = getelementptr inbounds nuw %class.btSequentialImpulseConstraintSolver, ptr %9, i32 0, i32 1
  %39 = load i32, ptr %5, align 4, !tbaa !9
  %40 = call noundef nonnull align 8 dereferenceable(248) ptr @_ZN20btAlignedObjectArrayI12btSolverBodyEixEi(ptr noundef nonnull align 8 dereferenceable(25) %38, i32 noundef %39)
  %41 = getelementptr inbounds nuw %struct.btSolverBody, ptr %40, i32 0, i32 8
  %42 = getelementptr inbounds nuw %class.btSequentialImpulseConstraintSolver, ptr %9, i32 0, i32 1
  %43 = load i32, ptr %5, align 4, !tbaa !9
  %44 = call noundef nonnull align 8 dereferenceable(248) ptr @_ZN20btAlignedObjectArrayI12btSolverBodyEixEi(ptr noundef nonnull align 8 dereferenceable(25) %42, i32 noundef %43)
  %45 = getelementptr inbounds nuw %struct.btSolverBody, ptr %44, i32 0, i32 1
  %46 = call { <2 x float>, <2 x float> } @_ZplRK9btVector3S1_(ptr noundef nonnull align 4 dereferenceable(16) %41, ptr noundef nonnull align 4 dereferenceable(16) %45)
  %47 = getelementptr inbounds nuw %class.btVector3, ptr %7, i32 0, i32 0
  %48 = getelementptr inbounds nuw { <2 x float>, <2 x float> }, ptr %47, i32 0, i32 0
  %49 = extractvalue { <2 x float>, <2 x float> } %46, 0
  store <2 x float> %49, ptr %48, align 4
  %50 = getelementptr inbounds nuw { <2 x float>, <2 x float> }, ptr %47, i32 0, i32 1
  %51 = extractvalue { <2 x float>, <2 x float> } %46, 1
  store <2 x float> %51, ptr %50, align 4
  call void @_ZN11btRigidBody17setLinearVelocityERK9btVector3(ptr noundef nonnull align 8 dereferenceable(744) %37, ptr noundef nonnull align 4 dereferenceable(16) %7)
  call void @llvm.lifetime.end.p0(i64 16, ptr %7) #4
  %52 = getelementptr inbounds nuw %class.btSequentialImpulseConstraintSolver, ptr %9, i32 0, i32 1
  %53 = load i32, ptr %5, align 4, !tbaa !9
  %54 = call noundef nonnull align 8 dereferenceable(248) ptr @_ZN20btAlignedObjectArrayI12btSolverBodyEixEi(ptr noundef nonnull align 8 dereferenceable(25) %52, i32 noundef %53)
  %55 = getelementptr inbounds nuw %struct.btSolverBody, ptr %54, i32 0, i32 12
  %56 = load ptr, ptr %55, align 8, !tbaa !131
  call void @llvm.lifetime.start.p0(i64 16, ptr %8) #4
  %57 = getelementptr inbounds nuw %class.btSequentialImpulseConstraintSolver, ptr %9, i32 0, i32 1
  %58 = load i32, ptr %5, align 4, !tbaa !9
  %59 = call noundef nonnull align 8 dereferenceable(248) ptr @_ZN20btAlignedObjectArrayI12btSolverBodyEixEi(ptr noundef nonnull align 8 dereferenceable(25) %57, i32 noundef %58)
  %60 = getelementptr inbounds nuw %struct.btSolverBody, ptr %59, i32 0, i32 9
  %61 = getelementptr inbounds nuw %class.btSequentialImpulseConstraintSolver, ptr %9, i32 0, i32 1
  %62 = load i32, ptr %5, align 4, !tbaa !9
  %63 = call noundef nonnull align 8 dereferenceable(248) ptr @_ZN20btAlignedObjectArrayI12btSolverBodyEixEi(ptr noundef nonnull align 8 dereferenceable(25) %61, i32 noundef %62)
  %64 = getelementptr inbounds nuw %struct.btSolverBody, ptr %63, i32 0, i32 2
  %65 = call { <2 x float>, <2 x float> } @_ZplRK9btVector3S1_(ptr noundef nonnull align 4 dereferenceable(16) %60, ptr noundef nonnull align 4 dereferenceable(16) %64)
  %66 = getelementptr inbounds nuw %class.btVector3, ptr %8, i32 0, i32 0
  %67 = getelementptr inbounds nuw { <2 x float>, <2 x float> }, ptr %66, i32 0, i32 0
  %68 = extractvalue { <2 x float>, <2 x float> } %65, 0
  store <2 x float> %68, ptr %67, align 4
  %69 = getelementptr inbounds nuw { <2 x float>, <2 x float> }, ptr %66, i32 0, i32 1
  %70 = extractvalue { <2 x float>, <2 x float> } %65, 1
  store <2 x float> %70, ptr %69, align 4
  call void @_ZN11btRigidBody18setAngularVelocityERK9btVector3(ptr noundef nonnull align 8 dereferenceable(744) %56, ptr noundef nonnull align 4 dereferenceable(16) %8)
  call void @llvm.lifetime.end.p0(i64 16, ptr %8) #4
  br label %71

71:                                               ; preds = %32, %24
  call void @llvm.lifetime.end.p0(i64 8, ptr %6) #4
  br label %72

72:                                               ; preds = %71
  %73 = load i32, ptr %5, align 4, !tbaa !9
  %74 = add nsw i32 %73, 1
  store i32 %74, ptr %5, align 4, !tbaa !9
  br label %18, !llvm.loop !134

75:                                               ; preds = %16, %23
  ret void
}