; Function Attrs: mustprogress uwtable
define dso_local void @_ZN37btDeformableMultiBodyConstraintSolver19solverBodyWriteBackERK19btContactSolverInfo(ptr noundef nonnull readonly align 8 captures(none) dereferenceable(800) %0, ptr noundef nonnull readnone align 4 captures(none) dereferenceable(128) %1) local_unnamed_addr #7 align 2 {
  %3 = getelementptr inbounds nuw i8, ptr %0, i64 792
  %4 = load ptr, ptr %3, align 8, !tbaa !98
  %5 = load ptr, ptr %4, align 8, !tbaa !50
  %6 = getelementptr inbounds nuw i8, ptr %5, i64 240
  %7 = load ptr, ptr %6, align 8
  %8 = tail call noundef zeroext i1 %7(ptr noundef nonnull align 8 dereferenceable(609) %4)
  br i1 %8, label %.loopexit, label %.preheader

.preheader:                                       ; preds = %2
  %9 = getelementptr inbounds nuw i8, ptr %0, i64 12
  %10 = load i32, ptr %9, align 4, !tbaa !128
  %11 = icmp sgt i32 %10, 0
  br i1 %11, label %.lr.ph, label %.loopexit

.lr.ph:                                           ; preds = %.preheader
  %12 = getelementptr inbounds nuw i8, ptr %0, i64 24
  br label %13

13:                                               ; preds = %.lr.ph, %62
  %14 = phi i32 [ %10, %.lr.ph ], [ %63, %62 ]
  %indvars.iv = phi i64 [ 0, %.lr.ph ], [ %indvars.iv.next, %62 ]
  %15 = load ptr, ptr %12, align 8, !tbaa !114
  %16 = getelementptr inbounds nuw %struct.btSolverBody, ptr %15, i64 %indvars.iv
  %17 = getelementptr inbounds nuw i8, ptr %16, i64 240
  %18 = load ptr, ptr %17, align 8, !tbaa !115
  %.not = icmp eq ptr %18, null
  br i1 %.not, label %62, label %19

19:                                               ; preds = %13
  %20 = getelementptr inbounds nuw i8, ptr %16, i64 176
  %21 = getelementptr inbounds nuw i8, ptr %16, i64 64
  %22 = load float, ptr %20, align 4, !tbaa !45
  %23 = load float, ptr %21, align 4, !tbaa !45
  %24 = fadd float %22, %23
  %25 = getelementptr inbounds nuw i8, ptr %16, i64 180
  %26 = load float, ptr %25, align 4, !tbaa !45
  %27 = getelementptr inbounds nuw i8, ptr %16, i64 68
  %28 = load float, ptr %27, align 4, !tbaa !45
  %29 = fadd float %26, %28
  %30 = getelementptr inbounds nuw i8, ptr %16, i64 184
  %31 = load float, ptr %30, align 4, !tbaa !45
  %32 = getelementptr inbounds nuw i8, ptr %16, i64 72
  %33 = load float, ptr %32, align 4, !tbaa !45
  %34 = fadd float %31, %33
  %.sroa.0.0.vec.insert.i = insertelement <2 x float> poison, float %24, i64 0
  %.sroa.0.4.vec.insert.i = insertelement <2 x float> %.sroa.0.0.vec.insert.i, float %29, i64 1
  %.sroa.3.12.vec.insert.i = insertelement <2 x float> <float poison, float 0.000000e+00>, float %34, i64 0
  %35 = getelementptr inbounds nuw i8, ptr %18, i64 352
  %36 = load i32, ptr %35, align 8, !tbaa !121
  %37 = add nsw i32 %36, 1
  store i32 %37, ptr %35, align 8, !tbaa !121
  %38 = getelementptr inbounds nuw i8, ptr %18, i64 420
  store <2 x float> %.sroa.0.4.vec.insert.i, ptr %38, align 4
  %.sroa.416.0..sroa_idx = getelementptr inbounds nuw i8, ptr %18, i64 428
  store <2 x float> %.sroa.3.12.vec.insert.i, ptr %.sroa.416.0..sroa_idx, align 4, !tbaa !41
  %39 = load ptr, ptr %12, align 8, !tbaa !114
  %40 = getelementptr inbounds nuw %struct.btSolverBody, ptr %39, i64 %indvars.iv
  %41 = getelementptr inbounds nuw i8, ptr %40, i64 240
  %42 = load ptr, ptr %41, align 8, !tbaa !115
  %43 = getelementptr inbounds nuw i8, ptr %40, i64 192
  %44 = getelementptr inbounds nuw i8, ptr %40, i64 80
  %45 = load float, ptr %43, align 4, !tbaa !45
  %46 = load float, ptr %44, align 4, !tbaa !45
  %47 = fadd float %45, %46
  %48 = getelementptr inbounds nuw i8, ptr %40, i64 196
  %49 = load float, ptr %48, align 4, !tbaa !45
  %50 = getelementptr inbounds nuw i8, ptr %40, i64 84
  %51 = load float, ptr %50, align 4, !tbaa !45
  %52 = fadd float %49, %51
  %53 = getelementptr inbounds nuw i8, ptr %40, i64 200
  %54 = load float, ptr %53, align 4, !tbaa !45
  %55 = getelementptr inbounds nuw i8, ptr %40, i64 88
  %56 = load float, ptr %55, align 4, !tbaa !45
  %57 = fadd float %54, %56
  %.sroa.0.0.vec.insert.i10 = insertelement <2 x float> poison, float %47, i64 0
  %.sroa.0.4.vec.insert.i11 = insertelement <2 x float> %.sroa.0.0.vec.insert.i10, float %52, i64 1
  %.sroa.3.12.vec.insert.i12 = insertelement <2 x float> <float poison, float 0.000000e+00>, float %57, i64 0
  %58 = getelementptr inbounds nuw i8, ptr %42, i64 352
  %59 = load i32, ptr %58, align 8, !tbaa !121
  %60 = add nsw i32 %59, 1
  store i32 %60, ptr %58, align 8, !tbaa !121
  %61 = getelementptr inbounds nuw i8, ptr %42, i64 436
  store <2 x float> %.sroa.0.4.vec.insert.i11, ptr %61, align 4
  %.sroa.4.0..sroa_idx = getelementptr inbounds nuw i8, ptr %42, i64 444
  store <2 x float> %.sroa.3.12.vec.insert.i12, ptr %.sroa.4.0..sroa_idx, align 4, !tbaa !41
  %.pre = load i32, ptr %9, align 4, !tbaa !128
  br label %62

62:                                               ; preds = %19, %13
  %63 = phi i32 [ %.pre, %19 ], [ %14, %13 ]
  %indvars.iv.next = add nuw nsw i64 %indvars.iv, 1
  %64 = sext i32 %63 to i64
  %65 = icmp slt i64 %indvars.iv.next, %64
  br i1 %65, label %13, label %.loopexit, !llvm.loop !129

.loopexit:                                        ; preds = %62, %.preheader, %2
  ret void
}